target datalayout = "e-m:e-p270:32:32-p271:32:32-p272:64:64-i64:64-i128:128-f80:128-n8:16:32:64-S128"
target triple = "x86_64-unknown-linux-gnu"

%class.solver_na2as = type { %class.solver, %class.ref_vector, %class.svector }
%class.solver = type { %class.check_sat_result, %"class.user_propagator::core", %class.params_ref, %class.symbol }
%class.check_sat_result = type { ptr, ptr, %class.ref_vector, %class.obj_ref, i32, i32, %class.ref, double }
%class.obj_ref = type { ptr, ptr }
%class.ref = type { ptr }
%"class.user_propagator::core" = type { ptr }
%class.params_ref = type { ptr }
%class.symbol = type { ptr }
%class.ref_vector = type { %class.ref_vector_core }
%class.ref_vector_core = type { %class.ref_manager_wrapper, %class.ptr_vector }
%class.ref_manager_wrapper = type { ptr }
%class.ptr_vector = type { %class.vector }
%class.vector = type { ptr }
%class.svector = type { %class.vector.0 }
%class.vector.0 = type { ptr }
%class.ast = type { i32, i24, i32, i32 }

@_ZTV6solver = external unnamed_addr constant { [48 x ptr], [14 x ptr] }, align 8

; Function Attrs: mustprogress nounwind uwtable
define linkonce_odr hidden noundef i32 @_ZNK3ast13get_ref_countEv(ptr noundef nonnull align 4 dereferenceable(16) %this) #5 comdat align 2 {
entry:
  %this.addr = alloca ptr, align 8
  store ptr %this, ptr %this.addr, align 8
  %this1 = load ptr, ptr %this.addr, align 8
  %m_ref_count = getelementptr inbounds %class.ast, ptr %this1, i32 0, i32 2
  %0 = load i32, ptr %m_ref_count, align 4
  ret i32 %0
}

; Function Attrs: mustprogress nounwind uwtable
define linkonce_odr hidden void @_ZN3ast7dec_refEv(ptr noundef nonnull align 4 dereferenceable(16) %this) #5 comdat align 2 {
entry:
  %this.addr = alloca ptr, align 8
  store ptr %this, ptr %this.addr, align 8
  %this1 = load ptr, ptr %this.addr, align 8
  %m_ref_count = getelementptr inbounds %class.ast, ptr %this1, i32 0, i32 2
  %0 = load i32, ptr %m_ref_count, align 4
  %dec = add i32 %0, -1
  store i32 %dec, ptr %m_ref_count, align 4
  ret void
}

; Function Attrs: mustprogress uwtable
define linkonce_odr hidden void @_ZN6vectorIP4exprLb0EjE11free_memoryEv(ptr noundef nonnull align 8 dereferenceable(8) %this) #4 comdat align 2 {
entry:
  %this.addr = alloca ptr, align 8
  store ptr %this, ptr %this.addr, align 8
  %this1 = load ptr, ptr %this.addr, align 8
  %m_data = getelementptr inbounds %class.vector, ptr %this1, i32 0, i32 0
  %0 = load ptr, ptr %m_data, align 8
  %add.ptr = getelementptr inbounds i32, ptr %0, i64 -2
  call void @_ZN6memory10deallocateEPv(ptr noundef %add.ptr)
  ret void
}

; Function Attrs: mustprogress uwtable
define linkonce_odr hidden void @_ZN11ast_manager7dec_refEP3ast(ptr noundef nonnull align 8 dereferenceable(976) %this, ptr noundef %n) #4 comdat align 2 {
entry:
  %this.addr = alloca ptr, align 8
  %n.addr = alloca ptr, align 8
  store ptr %this, ptr %this.addr, align 8
  store ptr %n, ptr %n.addr, align 8
  %this1 = load ptr, ptr %this.addr, align 8
  %0 = load ptr, ptr %n.addr, align 8
  %tobool = icmp ne ptr %0, null
  br i1 %tobool, label %if.then, label %if.end3

if.then:                                          ; preds = %entry
  %1 = load ptr, ptr %n.addr, align 8
  call void @_ZN3ast7dec_refEv(ptr noundef nonnull align 4 dereferenceable(16) %1)
  %2 = load ptr, ptr %n.addr, align 8
  %call = call noundef i32 @_ZNK3ast13get_ref_countEv(ptr noundef nonnull align 4 dereferenceable(16) %2)
  %cmp = icmp eq i32 %call, 0
  br i1 %cmp, label %if.then2, label %if.end

if.then2:                                         ; preds = %if.then
  %3 = load ptr, ptr %n.addr, align 8
  call void @_ZN11ast_manager11delete_nodeEP3ast(ptr noundef nonnull align 8 dereferenceable(976) %this1, ptr noundef %3)
  br label %if.end

if.end:                                           ; preds = %if.then2, %if.then
  br label %if.end3

if.end3:                                          ; preds = %if.end, %entry
  ret void
}

; Function Attrs: mustprogress uwtable
define linkonce_odr hidden void @_ZN6vectorIP4exprLb0EjE7destroyEv(ptr noundef nonnull align 8 dereferenceable(8) %this) #4 comdat align 2 {
entry:
  %this.addr = alloca ptr, align 8
  store ptr %this, ptr %this.addr, align 8
  %this1 = load ptr, ptr %this.addr, align 8
  %m_data = getelementptr inbounds %class.vector, ptr %this1, i32 0, i32 0
  %0 = load ptr, ptr %m_data, align 8
  %tobool = icmp ne ptr %0, null
  br i1 %tobool, label %if.then, label %if.end

if.then:                                          ; preds = %entry
  call void @_ZN6vectorIP4exprLb0EjE11free_memoryEv(ptr noundef nonnull align 8 dereferenceable(8) %this1)
  br label %if.end

if.end:                                           ; preds = %if.then, %entry
  ret void
}

; Function Attrs: mustprogress uwtable
define linkonce_odr hidden void @_ZN19ref_manager_wrapperI4expr11ast_managerE7dec_refEPS0_(ptr noundef nonnull align 8 dereferenceable(8) %this, ptr noundef %n) #4 comdat align 2 {
entry:
  %this.addr = alloca ptr, align 8
  %n.addr = alloca ptr, align 8
  store ptr %this, ptr %this.addr, align 8
  store ptr %n, ptr %n.addr, align 8
  %this1 = load ptr, ptr %this.addr, align 8
  %m_manager = getelementptr inbounds %class.ref_manager_wrapper, ptr %this1, i32 0, i32 0
  %0 = load ptr, ptr %m_manager, align 8
  %1 = load ptr, ptr %n.addr, align 8
  call void @_ZN11ast_manager7dec_refEP3ast(ptr noundef nonnull align 8 dereferenceable(976) %0, ptr noundef %1)
  ret void
}

; Function Attrs: mustprogress nounwind uwtable
define linkonce_odr hidden void @_ZN6vectorIP4exprLb0EjED2Ev(ptr noundef nonnull align 8 dereferenceable(8) %this) unnamed_addr #5 comdat align 2 personality ptr @__gxx_personality_v0 {
entry:
  %this.addr = alloca ptr, align 8
  store ptr %this, ptr %this.addr, align 8
  %this1 = load ptr, ptr %this.addr, align 8
  invoke void @_ZN6vectorIP4exprLb0EjE7destroyEv(ptr noundef nonnull align 8 dereferenceable(8) %this1)
          to label %invoke.cont unwind label %terminate.lpad

invoke.cont:                                      ; preds = %entry
  ret void

terminate.lpad:                                   ; preds = %entry
  %0 = landingpad { ptr, i32 }
          catch ptr null
  %1 = extractvalue { ptr, i32 } %0, 0
  call void @__clang_call_terminate(ptr %1) #14
  unreachable
}

; Function Attrs: mustprogress uwtable
define linkonce_odr hidden void @_ZN15ref_vector_coreI4expr19ref_manager_wrapperIS0_11ast_managerEE7dec_refEPS0_(ptr noundef nonnull align 8 dereferenceable(16) %this, ptr noundef %o) #4 comdat align 2 {
entry:
  %this.addr = alloca ptr, align 8
  %o.addr = alloca ptr, align 8
  store ptr %this, ptr %this.addr, align 8
  store ptr %o, ptr %o.addr, align 8
  %this1 = load ptr, ptr %this.addr, align 8
  %0 = load ptr, ptr %o.addr, align 8
  call void @_ZN19ref_manager_wrapperI4expr11ast_managerE7dec_refEPS0_(ptr noundef nonnull align 8 dereferenceable(8) %this1, ptr noundef %0)
  ret void
}

; Function Attrs: mustprogress uwtable
define linkonce_odr hidden void @_ZN6vectorIjLb0EjE11free_memoryEv(ptr noundef nonnull align 8 dereferenceable(8) %this) #4 comdat align 2 {
entry:
  %this.addr = alloca ptr, align 8
  store ptr %this, ptr %this.addr, align 8
  %this1 = load ptr, ptr %this.addr, align 8
  %m_data = getelementptr inbounds %class.vector.0, ptr %this1, i32 0, i32 0
  %0 = load ptr, ptr %m_data, align 8
  %add.ptr = getelementptr inbounds i32, ptr %0, i64 -2
  call void @_ZN6memory10deallocateEPv(ptr noundef %add.ptr)
  ret void
}

; Function Attrs: mustprogress nounwind uwtable
define linkonce_odr hidden void @_ZN10ptr_vectorI4exprED2Ev(ptr noundef nonnull align 8 dereferenceable(8) %this) unnamed_addr #5 comdat align 2 {
entry:
  %this.addr = alloca ptr, align 8
  store ptr %this, ptr %this.addr, align 8
  %this1 = load ptr, ptr %this.addr, align 8
  call void @_ZN6vectorIP4exprLb0EjED2Ev(ptr noundef nonnull align 8 dereferenceable(8) %this1) #3
  ret void
}

; Function Attrs: mustprogress uwtable
define linkonce_odr hidden void @_ZN15ref_vector_coreI4expr19ref_manager_wrapperIS0_11ast_managerEE13dec_range_refEPKPS0_S7_(ptr noundef nonnull align 8 dereferenceable(16) %this, ptr noundef %begin, ptr noundef %end) #4 comdat align 2 {
entry:
  %this.addr = alloca ptr, align 8
  %begin.addr = alloca ptr, align 8
  %end.addr = alloca ptr, align 8
  %it = alloca ptr, align 8
  store ptr %this, ptr %this.addr, align 8
  store ptr %begin, ptr %begin.addr, align 8
  store ptr %end, ptr %end.addr, align 8
  %this1 = load ptr, ptr %this.addr, align 8
  %0 = load ptr, ptr %begin.addr, align 8
  store ptr %0, ptr %it, align 8
  br label %for.cond

for.cond:                                         ; preds = %for.inc, %entry
  %1 = load ptr, ptr %it, align 8
  %2 = load ptr, ptr %end.addr, align 8
  %cmp = icmp ult ptr %1, %2
  br i1 %cmp, label %for.body, label %for.end

for.body:                                         ; preds = %for.cond
  %3 = load ptr, ptr %it, align 8
  %4 = load ptr, ptr %3, align 8
  call void @_ZN15ref_vector_coreI4expr19ref_manager_wrapperIS0_11ast_managerEE7dec_refEPS0_(ptr noundef nonnull align 8 dereferenceable(16) %this1, ptr noundef %4)
  br label %for.inc

for.inc:                                          ; preds = %for.body
  %5 = load ptr, ptr %it, align 8
  %incdec.ptr = getelementptr inbounds ptr, ptr %5, i32 1
  store ptr %incdec.ptr, ptr %it, align 8
  br label %for.cond, !llvm.loop !4

for.end:                                          ; preds = %for.cond
  ret void
}

; Function Attrs: mustprogress nounwind uwtable
define linkonce_odr hidden noundef i32 @_ZNK6vectorIP4exprLb0EjE4sizeEv(ptr noundef nonnull align 8 dereferenceable(8) %this) #5 comdat align 2 {
entry:
  %retval = alloca i32, align 4
  %this.addr = alloca ptr, align 8
  store ptr %this, ptr %this.addr, align 8
  %this1 = load ptr, ptr %this.addr, align 8
  %m_data = getelementptr inbounds %class.vector, ptr %this1, i32 0, i32 0
  %0 = load ptr, ptr %m_data, align 8
  %cmp = icmp eq ptr %0, null
  br i1 %cmp, label %if.then, label %if.end

if.then:                                          ; preds = %entry
  store i32 0, ptr %retval, align 4
  br label %return

if.end:                                           ; preds = %entry
  %m_data2 = getelementptr inbounds %class.vector, ptr %this1, i32 0, i32 0
  %1 = load ptr, ptr %m_data2, align 8
  %arrayidx = getelementptr inbounds i32, ptr %1, i64 -1
  %2 = load i32, ptr %arrayidx, align 4
  store i32 %2, ptr %retval, align 4
  br label %return

return:                                           ; preds = %if.end, %if.then
  %3 = load i32, ptr %retval, align 4
  ret i32 %3
}

; Function Attrs: mustprogress nounwind uwtable
define linkonce_odr hidden noundef ptr @_ZNK6vectorIP4exprLb0EjE4dataEv(ptr noundef nonnull align 8 dereferenceable(8) %this) #5 comdat align 2 {
entry:
  %this.addr = alloca ptr, align 8
  store ptr %this, ptr %this.addr, align 8
  %this1 = load ptr, ptr %this.addr, align 8
  %m_data = getelementptr inbounds %class.vector, ptr %this1, i32 0, i32 0
  %0 = load ptr, ptr %m_data, align 8
  ret ptr %0
}

; Function Attrs: mustprogress uwtable
define linkonce_odr hidden void @_ZN6vectorIjLb0EjE7destroyEv(ptr noundef nonnull align 8 dereferenceable(8) %this) #4 comdat align 2 {
entry:
  %this.addr = alloca ptr, align 8
  store ptr %this, ptr %this.addr, align 8
  %this1 = load ptr, ptr %this.addr, align 8
  %m_data = getelementptr inbounds %class.vector.0, ptr %this1, i32 0, i32 0
  %0 = load ptr, ptr %m_data, align 8
  %tobool = icmp ne ptr %0, null
  br i1 %tobool, label %if.then, label %if.end

if.then:                                          ; preds = %entry
  call void @_ZN6vectorIjLb0EjE11free_memoryEv(ptr noundef nonnull align 8 dereferenceable(8) %this1)
  br label %if.end

if.end:                                           ; preds = %if.then, %entry
  ret void
}

; Function Attrs: mustprogress nounwind uwtable
define linkonce_odr hidden void @_ZN15user_propagator4coreD2Ev(ptr noundef nonnull align 8 dereferenceable(8) %this) unnamed_addr #5 comdat align 2 {
entry:
  %this.addr = alloca ptr, align 8
  store ptr %this, ptr %this.addr, align 8
  ret void
}

; Function Attrs: mustprogress nounwind uwtable
define linkonce_odr hidden void @_ZN15ref_vector_coreI4expr19ref_manager_wrapperIS0_11ast_managerEED2Ev(ptr noundef nonnull align 8 dereferenceable(16) %this) unnamed_addr #5 comdat align 2 personality ptr @__gxx_personality_v0 {
entry:
  %this.addr = alloca ptr, align 8
  store ptr %this, ptr %this.addr, align 8
  %this1 = load ptr, ptr %this.addr, align 8
  %m_nodes = getelementptr inbounds %class.ref_vector_core, ptr %this1, i32 0, i32 1
  %call = invoke noundef ptr @_ZNK6vectorIP4exprLb0EjE4dataEv(ptr noundef nonnull align 8 dereferenceable(8) %m_nodes)
          to label %invoke.cont unwind label %terminate.lpad

invoke.cont:                                      ; preds = %entry
  %m_nodes2 = getelementptr inbounds %class.ref_vector_core, ptr %this1, i32 0, i32 1
  %call4 = invoke noundef ptr @_ZNK6vectorIP4exprLb0EjE4dataEv(ptr noundef nonnull align 8 dereferenceable(8) %m_nodes2)
          to label %invoke.cont3 unwind label %terminate.lpad

invoke.cont3:                                     ; preds = %invoke.cont
  %m_nodes5 = getelementptr inbounds %class.ref_vector_core, ptr %this1, i32 0, i32 1
  %call7 = invoke noundef i32 @_ZNK6vectorIP4exprLb0EjE4sizeEv(ptr noundef nonnull align 8 dereferenceable(8) %m_nodes5)
          to label %invoke.cont6 unwind label %terminate.lpad

invoke.cont6:                                     ; preds = %invoke.cont3
  %idx.ext = zext i32 %call7 to i64
  %add.ptr = getelementptr inbounds ptr, ptr %call4, i64 %idx.ext
  invoke void @_ZN15ref_vector_coreI4expr19ref_manager_wrapperIS0_11ast_managerEE13dec_range_refEPKPS0_S7_(ptr noundef nonnull align 8 dereferenceable(16) %this1, ptr noundef %call, ptr noundef %add.ptr)
          to label %invoke.cont8 unwind label %terminate.lpad

invoke.cont8:                                     ; preds = %invoke.cont6
  %m_nodes9 = getelementptr inbounds %class.ref_vector_core, ptr %this1, i32 0, i32 1
  call void @_ZN10ptr_vectorI4exprED2Ev(ptr noundef nonnull align 8 dereferenceable(8) %m_nodes9) #3
  ret void

terminate.lpad:                                   ; preds = %invoke.cont6, %invoke.cont3, %invoke.cont, %entry
  %0 = landingpad { ptr, i32 }
          catch ptr null
  %1 = extractvalue { ptr, i32 } %0, 0
  call void @__clang_call_terminate(ptr %1) #14
  unreachable
}

; Function Attrs: mustprogress nounwind uwtable
define linkonce_odr hidden void @_ZN6vectorIjLb0EjED2Ev(ptr noundef nonnull align 8 dereferenceable(8) %this) unnamed_addr #5 comdat align 2 personality ptr @__gxx_personality_v0 {
entry:
  %this.addr = alloca ptr, align 8
  store ptr %this, ptr %this.addr, align 8
  %this1 = load ptr, ptr %this.addr, align 8
  invoke void @_ZN6vectorIjLb0EjE7destroyEv(ptr noundef nonnull align 8 dereferenceable(8) %this1)
          to label %invoke.cont unwind label %terminate.lpad

invoke.cont:                                      ; preds = %entry
  ret void

terminate.lpad:                                   ; preds = %entry
  %0 = landingpad { ptr, i32 }
          catch ptr null
  %1 = extractvalue { ptr, i32 } %0, 0
  call void @__clang_call_terminate(ptr %1) #14
  unreachable
}

; Function Attrs: mustprogress nounwind uwtable
define linkonce_odr hidden void @_ZN6solverD2Ev(ptr noundef nonnull align 8 dereferenceable(96) %this) unnamed_addr #5 comdat align 2 {
entry:
  %this.addr = alloca ptr, align 8
  store ptr %this, ptr %this.addr, align 8
  %this1 = load ptr, ptr %this.addr, align 8
  store ptr getelementptr inbounds ({ [48 x ptr], [14 x ptr] }, ptr @_ZTV6solver, i32 0, i32 0, i32 2), ptr %this1, align 8
  %add.ptr = getelementptr inbounds i8, ptr %this1, i64 72
  store ptr getelementptr inbounds ({ [48 x ptr], [14 x ptr] }, ptr @_ZTV6solver, i32 0, i32 1, i32 2), ptr %add.ptr, align 8
  %m_params = getelementptr inbounds %class.solver, ptr %this1, i32 0, i32 2
  call void @_ZN10params_refD1Ev(ptr noundef nonnull align 8 dereferenceable(8) %m_params) #3
  %0 = getelementptr inbounds i8, ptr %this1, i64 72
  call void @_ZN15user_propagator4coreD2Ev(ptr noundef nonnull align 8 dereferenceable(8) %0) #3
  call void @_ZN16check_sat_resultD2Ev(ptr noundef nonnull align 8 dereferenceable(72) %this1) #3
  ret void
}

; Function Attrs: mustprogress nounwind uwtable
define linkonce_odr hidden void @_ZN10ref_vectorI4expr11ast_managerED2Ev(ptr noundef nonnull align 8 dereferenceable(16) %this) unnamed_addr #5 comdat align 2 {
entry:
  %this.addr = alloca ptr, align 8
  store ptr %this, ptr %this.addr, align 8
  %this1 = load ptr, ptr %this.addr, align 8
  call void @_ZN15ref_vector_coreI4expr19ref_manager_wrapperIS0_11ast_managerEED2Ev(ptr noundef nonnull align 8 dereferenceable(16) %this1) #3
  ret void
}

; Function Attrs: mustprogress nounwind uwtable
define linkonce_odr hidden void @_ZN7svectorIjjED2Ev(ptr noundef nonnull align 8 dereferenceable(8) %this) unnamed_addr #5 comdat align 2 {
entry:
  %this.addr = alloca ptr, align 8
  store ptr %this, ptr %this.addr, align 8
  %this1 = load ptr, ptr %this.addr, align 8
  call void @_ZN6vectorIjLb0EjED2Ev(ptr noundef nonnull align 8 dereferenceable(8) %this1) #3
  ret void
}

; Function Attrs: mustprogress nounwind uwtable
define hidden void @_ZN12solver_na2asD2Ev(ptr noundef nonnull align 8 dereferenceable(120) %this) unnamed_addr #5 align 2 {
entry:
  %this.addr = alloca ptr, align 8
  store ptr %this, ptr %this.addr, align 8
  %this1 = load ptr, ptr %this.addr, align 8
  store ptr getelementptr inbounds ({ [52 x ptr], [14 x ptr] }, ptr @_ZTV12solver_na2as, i32 0, i32 0, i32 2), ptr %this1, align 8
  %add.ptr = getelementptr inbounds i8, ptr %this1, i64 72
  store ptr getelementptr inbounds ({ [52 x ptr], [14 x ptr] }, ptr @_ZTV12solver_na2as, i32 0, i32 1, i32 2), ptr %add.ptr, align 8
  %m_scopes = getelementptr inbounds %class.solver_na2as, ptr %this1, i32 0, i32 2
  call void @_ZN7svectorIjjED2Ev(ptr noundef nonnull align 8 dereferenceable(8) %m_scopes) #3
  %m_assumptions = getelementptr inbounds %class.solver_na2as, ptr %this1, i32 0, i32 1
  call void @_ZN10ref_vectorI4expr11ast_managerED2Ev(ptr noundef nonnull align 8 dereferenceable(16) %m_assumptions) #3
  call void @_ZN6solverD2Ev(ptr noundef nonnull align 8 dereferenceable(96) %this1) #3
  ret void
}