; Function Attrs: mustprogress nounwind uwtable
define hidden void @_ZN12solver_na2asD2Ev(ptr noundef nonnull align 8 dereferenceable(120) %this) unnamed_addr #4 align 2 personality ptr @__gxx_personality_v0 {
entry:
  store ptr getelementptr inbounds ({ [52 x ptr], [14 x ptr] }, ptr @_ZTV12solver_na2as, i64 0, i32 0, i64 2), ptr %this, align 8
  %add.ptr = getelementptr inbounds i8, ptr %this, i64 72
  store ptr getelementptr inbounds ({ [52 x ptr], [14 x ptr] }, ptr @_ZTV12solver_na2as, i64 0, i32 1, i64 2), ptr %add.ptr, align 8
  %m_scopes = getelementptr inbounds i8, ptr %this, i64 112
  %0 = load ptr, ptr %m_scopes, align 8
  %tobool.not.i.i.i = icmp eq ptr %0, null
  br i1 %tobool.not.i.i.i, label %_ZN7svectorIjjED2Ev.exit, label %if.then.i.i.i

if.then.i.i.i:                                    ; preds = %entry
  %add.ptr.i.i.i.i = getelementptr inbounds i8, ptr %0, i64 -8
  invoke void @_ZN6memory10deallocateEPv(ptr noundef nonnull %add.ptr.i.i.i.i)
          to label %_ZN7svectorIjjED2Ev.exit unwind label %terminate.lpad.i.i

terminate.lpad.i.i:                               ; preds = %if.then.i.i.i
  %1 = landingpad { ptr, i32 }
          catch ptr null
  %2 = extractvalue { ptr, i32 } %1, 0
  tail call void @__clang_call_terminate(ptr %2) #19
  unreachable

_ZN7svectorIjjED2Ev.exit:                         ; preds = %entry, %if.then.i.i.i
  %m_assumptions = getelementptr inbounds i8, ptr %this, i64 96
  %m_nodes.i.i = getelementptr inbounds i8, ptr %this, i64 104
  %3 = load ptr, ptr %m_nodes.i.i, align 8
  %cmp.i.i.i = icmp eq ptr %3, null
  br i1 %cmp.i.i.i, label %_ZN10ref_vectorI4expr11ast_managerED2Ev.exit, label %_ZNK6vectorIP4exprLb0EjE4sizeEv.exit.i.i

_ZNK6vectorIP4exprLb0EjE4sizeEv.exit.i.i:         ; preds = %_ZN7svectorIjjED2Ev.exit
  %arrayidx.i.i.i = getelementptr inbounds i8, ptr %3, i64 -4
  %4 = load i32, ptr %arrayidx.i.i.i, align 4
  %5 = zext i32 %4 to i64
  %add.ptr.i.i = getelementptr inbounds ptr, ptr %3, i64 %5
  %cmp3.i.not.i.i = icmp eq i32 %4, 0
  br i1 %cmp3.i.not.i.i, label %if.then.i.i.i.i.i, label %for.body.i.i.i

for.body.i.i.i:                                   ; preds = %_ZNK6vectorIP4exprLb0EjE4sizeEv.exit.i.i, %_ZN15ref_vector_coreI4expr19ref_manager_wrapperIS0_11ast_managerEE7dec_refEPS0_.exit.i.i.i
  %it.04.i.i.i = phi ptr [ %incdec.ptr.i.i.i, %_ZN15ref_vector_coreI4expr19ref_manager_wrapperIS0_11ast_managerEE7dec_refEPS0_.exit.i.i.i ], [ %3, %_ZNK6vectorIP4exprLb0EjE4sizeEv.exit.i.i ]
  %6 = load ptr, ptr %it.04.i.i.i, align 8
  %7 = load ptr, ptr %m_assumptions, align 8
  %tobool.not.i.i.i.i.i.i = icmp eq ptr %6, null
  br i1 %tobool.not.i.i.i.i.i.i, label %_ZN15ref_vector_coreI4expr19ref_manager_wrapperIS0_11ast_managerEE7dec_refEPS0_.exit.i.i.i, label %if.then.i.i.i.i.i.i

if.then.i.i.i.i.i.i:                              ; preds = %for.body.i.i.i
  %m_ref_count.i.i.i.i.i.i.i = getelementptr inbounds i8, ptr %6, i64 8
  %8 = load i32, ptr %m_ref_count.i.i.i.i.i.i.i, align 4
  %dec.i.i.i.i.i.i.i = add i32 %8, -1
  store i32 %dec.i.i.i.i.i.i.i, ptr %m_ref_count.i.i.i.i.i.i.i, align 4
  %cmp.i.i.i.i.i.i = icmp eq i32 %dec.i.i.i.i.i.i.i, 0
  br i1 %cmp.i.i.i.i.i.i, label %if.then2.i.i.i.i.i.i, label %_ZN15ref_vector_coreI4expr19ref_manager_wrapperIS0_11ast_managerEE7dec_refEPS0_.exit.i.i.i

if.then2.i.i.i.i.i.i:                             ; preds = %if.then.i.i.i.i.i.i
  invoke void @_ZN11ast_manager11delete_nodeEP3ast(ptr noundef nonnull align 8 dereferenceable(976) %7, ptr noundef nonnull %6)
          to label %_ZN15ref_vector_coreI4expr19ref_manager_wrapperIS0_11ast_managerEE7dec_refEPS0_.exit.i.i.i unwind label %terminate.lpad.i.i1

_ZN15ref_vector_coreI4expr19ref_manager_wrapperIS0_11ast_managerEE7dec_refEPS0_.exit.i.i.i: ; preds = %if.then2.i.i.i.i.i.i, %if.then.i.i.i.i.i.i, %for.body.i.i.i
  %incdec.ptr.i.i.i = getelementptr inbounds i8, ptr %it.04.i.i.i, i64 8
  %cmp.i1.i.i = icmp ult ptr %incdec.ptr.i.i.i, %add.ptr.i.i
  br i1 %cmp.i1.i.i, label %for.body.i.i.i, label %invoke.cont8.i.i, !llvm.loop !4

invoke.cont8.i.i:                                 ; preds = %_ZN15ref_vector_coreI4expr19ref_manager_wrapperIS0_11ast_managerEE7dec_refEPS0_.exit.i.i.i
  %.pre.i.i = load ptr, ptr %m_nodes.i.i, align 8
  %tobool.not.i.i.i.i.i = icmp eq ptr %.pre.i.i, null
  br i1 %tobool.not.i.i.i.i.i, label %_ZN10ref_vectorI4expr11ast_managerED2Ev.exit, label %if.then.i.i.i.i.i

if.then.i.i.i.i.i:                                ; preds = %invoke.cont8.i.i, %_ZNK6vectorIP4exprLb0EjE4sizeEv.exit.i.i
  %9 = phi ptr [ %.pre.i.i, %invoke.cont8.i.i ], [ %3, %_ZNK6vectorIP4exprLb0EjE4sizeEv.exit.i.i ]
  %add.ptr.i.i.i.i.i.i = getelementptr inbounds i8, ptr %9, i64 -8
  invoke void @_ZN6memory10deallocateEPv(ptr noundef nonnull %add.ptr.i.i.i.i.i.i)
          to label %_ZN10ref_vectorI4expr11ast_managerED2Ev.exit unwind label %terminate.lpad.i.i.i.i

terminate.lpad.i.i.i.i:                           ; preds = %if.then.i.i.i.i.i
  %10 = landingpad { ptr, i32 }
          catch ptr null
  %11 = extractvalue { ptr, i32 } %10, 0
  tail call void @__clang_call_terminate(ptr %11) #19
  unreachable

terminate.lpad.i.i1:                              ; preds = %if.then2.i.i.i.i.i.i
  %12 = landingpad { ptr, i32 }
          catch ptr null
  %13 = extractvalue { ptr, i32 } %12, 0
  tail call void @__clang_call_terminate(ptr %13) #19
  unreachable

_ZN10ref_vectorI4expr11ast_managerED2Ev.exit:     ; preds = %_ZN7svectorIjjED2Ev.exit, %invoke.cont8.i.i, %if.then.i.i.i.i.i
  store ptr getelementptr inbounds ({ [48 x ptr], [14 x ptr] }, ptr @_ZTV6solver, i64 0, i32 0, i64 2), ptr %this, align 8
  store ptr getelementptr inbounds ({ [48 x ptr], [14 x ptr] }, ptr @_ZTV6solver, i64 0, i32 1, i64 2), ptr %add.ptr, align 8
  %m_params.i = getelementptr inbounds i8, ptr %this, i64 80
  tail call void @_ZN10params_refD1Ev(ptr noundef nonnull align 8 dereferenceable(8) %m_params.i) #20
  tail call void @_ZN16check_sat_resultD2Ev(ptr noundef nonnull align 8 dereferenceable(72) %this) #20
  ret void
}